target datalayout = "e-m:e-p270:32:32-p271:32:32-p272:64:64-i64:64-i128:128-f80:128-n8:16:32:64-S128"
target triple = "x86_64-pc-linux-gnu"

%struct.pmix_list_t = type { %struct.pmix_object_t, %struct.pmix_list_item_t, i64 }
%struct.pmix_object_t = type { %union.pthread_mutex_t, ptr, i32, %struct.pmix_tma }
%union.pthread_mutex_t = type { %struct.__pthread_mutex_s }
%struct.__pthread_mutex_s = type { i32, i32, i32, i32, i32, i16, i16, %struct.__pthread_internal_list }
%struct.__pthread_internal_list = type { ptr, ptr }
%struct.pmix_tma = type { ptr, ptr, ptr, ptr, ptr, ptr, ptr, ptr }
%struct.pmix_list_item_t = type { %struct.pmix_object_t, ptr, ptr, i32 }
%struct.pmix_globals_t = type { i32, %struct.pmix_proc, %struct.pmix_value, %struct.pmix_value, ptr, i32, i32, ptr, i32, i32, i32, i32, i32, ptr, ptr, i32, %struct.pmix_events_t, i8, i8, %struct.timeval, %struct.pmix_list_t, %struct.pmix_pointer_array_t, i32, i32, %struct.pmix_hotel_t, i8, %struct.pmix_list_t, i8, i8, i8, i64, %struct.pmix_list_t, %struct.pmix_topology_t, %struct.pmix_cpuset_t, i8, i8, %struct.pmix_iof_flags_t, %struct.pmix_keyindex_t }
%struct.pmix_proc = type { [256 x i8], i32 }
%struct.pmix_value = type { i16, %union.anon }
%union.anon = type { %struct.pmix_envar_t }
%struct.pmix_envar_t = type { ptr, ptr, i8 }
%struct.pmix_events_t = type { %struct.pmix_object_t, i64, ptr, ptr, %struct.pmix_list_t, %struct.pmix_list_t, %struct.pmix_list_t, %struct.pmix_list_t }
%struct.timeval = type { i64, i64 }
%struct.pmix_pointer_array_t = type { %struct.pmix_object_t, i32, i32, i32, i32, i32, ptr, ptr }
%struct.pmix_hotel_t = type { %struct.pmix_object_t, i32, ptr, %struct.timeval, ptr, ptr, ptr, ptr, i32 }
%struct.pmix_topology_t = type { ptr, ptr }
%struct.pmix_cpuset_t = type { ptr, ptr }
%struct.pmix_iof_flags_t = type { i8, i8, i8, i8, i8, i8, i8, ptr, ptr, i8, i8, i8, i8, i8, i8 }
%struct.pmix_keyindex_t = type { %struct.pmix_object_t, ptr, i32 }
%struct.pmix_regattr_input_t = type { i32, ptr, ptr, i16, ptr }

@pmix_globals = external global %struct.pmix_globals_t, align 8
@.str.19 = private unnamed_addr constant [13 x i8] c"USER DEFINED\00", align 1

; Function Attrs: nounwind uwtable
define void @pmix_hash_register_key(i32 noundef %0, ptr noundef %1, ptr noundef %2) #0 {
  %4 = alloca i32, align 4
  %5 = alloca ptr, align 8
  %6 = alloca ptr, align 8
  %7 = alloca ptr, align 8
  %8 = alloca ptr, align 8
  %9 = alloca i32, align 4
  store i32 %0, ptr %4, align 4, !tbaa !8
  store ptr %1, ptr %5, align 8, !tbaa !10
  store ptr %2, ptr %6, align 8, !tbaa !10
  call void @llvm.lifetime.start.p0(i64 8, ptr %7) #15
  store ptr null, ptr %7, align 8, !tbaa !10
  call void @llvm.lifetime.start.p0(i64 8, ptr %8) #15
  %10 = load ptr, ptr %6, align 8, !tbaa !10
  %11 = call ptr @get_keyindex_ptr(ptr noundef %10)
  store ptr %11, ptr %8, align 8, !tbaa !10
  %12 = load i32, ptr %4, align 4, !tbaa !8
  %13 = icmp eq i32 -1, %12
  br i1 %13, label %14, label %32

14:                                               ; preds = %3
  %15 = load ptr, ptr %8, align 8, !tbaa !10
  %16 = getelementptr inbounds nuw %struct.pmix_keyindex_t, ptr %15, i32 0, i32 1
  %17 = load ptr, ptr %16, align 8, !tbaa !63
  %18 = load ptr, ptr %8, align 8, !tbaa !10
  %19 = getelementptr inbounds nuw %struct.pmix_keyindex_t, ptr %18, i32 0, i32 2
  %20 = load i32, ptr %19, align 8, !tbaa !113
  %21 = load ptr, ptr %5, align 8, !tbaa !10
  %22 = call i32 @pmix_pointer_array_set_item(ptr noundef %17, i32 noundef %20, ptr noundef %21)
  %23 = load ptr, ptr %8, align 8, !tbaa !10
  %24 = getelementptr inbounds nuw %struct.pmix_keyindex_t, ptr %23, i32 0, i32 2
  %25 = load i32, ptr %24, align 8, !tbaa !113
  %26 = load ptr, ptr %5, align 8, !tbaa !10
  %27 = getelementptr inbounds nuw %struct.pmix_regattr_input_t, ptr %26, i32 0, i32 0
  store i32 %25, ptr %27, align 8, !tbaa !37
  %28 = load ptr, ptr %8, align 8, !tbaa !10
  %29 = getelementptr inbounds nuw %struct.pmix_keyindex_t, ptr %28, i32 0, i32 2
  %30 = load i32, ptr %29, align 8, !tbaa !113
  %31 = add i32 %30, 1
  store i32 %31, ptr %29, align 8, !tbaa !113
  store i32 1, ptr %9, align 4
  br label %48

32:                                               ; preds = %3
  %33 = load ptr, ptr %8, align 8, !tbaa !10
  %34 = getelementptr inbounds nuw %struct.pmix_keyindex_t, ptr %33, i32 0, i32 1
  %35 = load ptr, ptr %34, align 8, !tbaa !63
  %36 = load i32, ptr %4, align 4, !tbaa !8
  %37 = call ptr @pmix_pointer_array_get_item(ptr noundef %35, i32 noundef %36)
  store ptr %37, ptr %7, align 8, !tbaa !10
  %38 = load ptr, ptr %7, align 8, !tbaa !10
  %39 = icmp ne ptr null, %38
  br i1 %39, label %40, label %41

40:                                               ; preds = %32
  store i32 1, ptr %9, align 4
  br label %48

41:                                               ; preds = %32
  %42 = load ptr, ptr %8, align 8, !tbaa !10
  %43 = getelementptr inbounds nuw %struct.pmix_keyindex_t, ptr %42, i32 0, i32 1
  %44 = load ptr, ptr %43, align 8, !tbaa !63
  %45 = load i32, ptr %4, align 4, !tbaa !8
  %46 = load ptr, ptr %5, align 8, !tbaa !10
  %47 = call i32 @pmix_pointer_array_set_item(ptr noundef %44, i32 noundef %45, ptr noundef %46)
  store i32 0, ptr %9, align 4
  br label %48

48:                                               ; preds = %41, %40, %14
  call void @llvm.lifetime.end.p0(i64 8, ptr %8) #15
  call void @llvm.lifetime.end.p0(i64 8, ptr %7) #15
  %49 = load i32, ptr %9, align 4
  switch i32 %49, label %51 [
    i32 0, label %50
    i32 1, label %50
  ]

50:                                               ; preds = %48, %48
  ret void

51:                                               ; preds = %48
  unreachable
}

; Function Attrs: inlinehint nounwind uwtable
define internal ptr @pmix_malloc(i64 noundef %0) #2 {
  %2 = alloca i64, align 8
  store i64 %0, ptr %2, align 8, !tbaa !13
  %3 = load i64, ptr %2, align 8, !tbaa !13
  %4 = call noalias ptr @malloc(i64 noundef %3) #17
  ret ptr %4
}

; Function Attrs: inlinehint nounwind uwtable
define internal ptr @pmix_pointer_array_get_item(ptr noundef %0, i32 noundef %1) #2 {
  %3 = alloca ptr, align 8
  %4 = alloca ptr, align 8
  %5 = alloca i32, align 4
  %6 = alloca ptr, align 8
  %7 = alloca i32, align 4
  store ptr %0, ptr %4, align 8, !tbaa !97
  store i32 %1, ptr %5, align 4, !tbaa !8
  call void @llvm.lifetime.start.p0(i64 8, ptr %6) #15
  %8 = load i32, ptr %5, align 4, !tbaa !8
  %9 = icmp sgt i32 0, %8
  br i1 %9, label %16, label %10

10:                                               ; preds = %2
  %11 = load ptr, ptr %4, align 8, !tbaa !97
  %12 = getelementptr inbounds nuw %struct.pmix_pointer_array_t, ptr %11, i32 0, i32 3
  %13 = load i32, ptr %12, align 8, !tbaa !65
  %14 = load i32, ptr %5, align 4, !tbaa !8
  %15 = icmp sle i32 %13, %14
  br label %16

16:                                               ; preds = %10, %2
  %17 = phi i1 [ true, %2 ], [ %15, %10 ]
  %18 = xor i1 %17, true
  %19 = xor i1 %18, true
  %20 = zext i1 %19 to i32
  %21 = sext i32 %20 to i64
  %22 = call i64 @llvm.expect.i64(i64 %21, i64 0)
  %23 = icmp ne i64 %22, 0
  br i1 %23, label %24, label %25

24:                                               ; preds = %16
  store ptr null, ptr %3, align 8
  store i32 1, ptr %7, align 4
  br label %34

25:                                               ; preds = %16
  %26 = load ptr, ptr %4, align 8, !tbaa !97
  %27 = getelementptr inbounds nuw %struct.pmix_pointer_array_t, ptr %26, i32 0, i32 7
  %28 = load ptr, ptr %27, align 8, !tbaa !98
  %29 = load i32, ptr %5, align 4, !tbaa !8
  %30 = sext i32 %29 to i64
  %31 = getelementptr inbounds ptr, ptr %28, i64 %30
  %32 = load ptr, ptr %31, align 8, !tbaa !10
  store ptr %32, ptr %6, align 8, !tbaa !10
  %33 = load ptr, ptr %6, align 8, !tbaa !10
  store ptr %33, ptr %3, align 8
  store i32 1, ptr %7, align 4
  br label %34

34:                                               ; preds = %25, %24
  call void @llvm.lifetime.end.p0(i64 8, ptr %6) #15
  %35 = load ptr, ptr %3, align 8
  ret ptr %35
}

; Function Attrs: inlinehint nounwind uwtable
define internal ptr @get_keyindex_ptr(ptr noundef %0) #2 {
  %2 = alloca ptr, align 8
  store ptr %0, ptr %2, align 8, !tbaa !10
  %3 = load ptr, ptr %2, align 8, !tbaa !10
  %4 = icmp ne ptr %3, null
  br i1 %4, label %5, label %7

5:                                                ; preds = %1
  %6 = load ptr, ptr %2, align 8, !tbaa !10
  br label %8

7:                                                ; preds = %1
  br label %8

8:                                                ; preds = %7, %5
  %9 = phi ptr [ %6, %5 ], [ getelementptr inbounds nuw (%struct.pmix_globals_t, ptr @pmix_globals, i32 0, i32 37), %7 ]
  ret ptr %9
}

; Function Attrs: nounwind uwtable
define ptr @pmix_hash_lookup_key(i32 noundef %0, ptr noundef %1, ptr noundef %2) #0 {
  %4 = alloca ptr, align 8
  %5 = alloca i32, align 4
  %6 = alloca ptr, align 8
  %7 = alloca ptr, align 8
  %8 = alloca i32, align 4
  %9 = alloca ptr, align 8
  %10 = alloca ptr, align 8
  %11 = alloca i32, align 4
  store i32 %0, ptr %5, align 4, !tbaa !8
  store ptr %1, ptr %6, align 8, !tbaa !43
  store ptr %2, ptr %7, align 8, !tbaa !10
  call void @llvm.lifetime.start.p0(i64 4, ptr %8) #15
  call void @llvm.lifetime.start.p0(i64 8, ptr %9) #15
  store ptr null, ptr %9, align 8, !tbaa !10
  call void @llvm.lifetime.start.p0(i64 8, ptr %10) #15
  %12 = load ptr, ptr %7, align 8, !tbaa !10
  %13 = call ptr @get_keyindex_ptr(ptr noundef %12)
  store ptr %13, ptr %10, align 8, !tbaa !10
  %14 = load i32, ptr %5, align 4, !tbaa !8
  %15 = icmp eq i32 -1, %14
  br i1 %15, label %16, label %78

16:                                               ; preds = %3
  %17 = load ptr, ptr %6, align 8, !tbaa !43
  %18 = icmp eq ptr null, %17
  br i1 %18, label %19, label %20

19:                                               ; preds = %16
  store ptr null, ptr %4, align 8
  store i32 1, ptr %11, align 4
  br label %85

20:                                               ; preds = %16
  store i32 0, ptr %8, align 4, !tbaa !8
  br label %21

21:                                               ; preds = %48, %20
  %22 = load i32, ptr %8, align 4, !tbaa !8
  %23 = load ptr, ptr %10, align 8, !tbaa !10
  %24 = getelementptr inbounds nuw %struct.pmix_keyindex_t, ptr %23, i32 0, i32 1
  %25 = load ptr, ptr %24, align 8, !tbaa !63
  %26 = getelementptr inbounds nuw %struct.pmix_pointer_array_t, ptr %25, i32 0, i32 3
  %27 = load i32, ptr %26, align 8, !tbaa !65
  %28 = icmp slt i32 %22, %27
  br i1 %28, label %29, label %51

29:                                               ; preds = %21
  %30 = load ptr, ptr %10, align 8, !tbaa !10
  %31 = getelementptr inbounds nuw %struct.pmix_keyindex_t, ptr %30, i32 0, i32 1
  %32 = load ptr, ptr %31, align 8, !tbaa !63
  %33 = load i32, ptr %8, align 4, !tbaa !8
  %34 = call ptr @pmix_pointer_array_get_item(ptr noundef %32, i32 noundef %33)
  store ptr %34, ptr %9, align 8, !tbaa !10
  %35 = load ptr, ptr %9, align 8, !tbaa !10
  %36 = icmp ne ptr null, %35
  br i1 %36, label %37, label %47

37:                                               ; preds = %29
  %38 = load ptr, ptr %6, align 8, !tbaa !43
  %39 = load ptr, ptr %9, align 8, !tbaa !10
  %40 = getelementptr inbounds nuw %struct.pmix_regattr_input_t, ptr %39, i32 0, i32 2
  %41 = load ptr, ptr %40, align 8, !tbaa !68
  %42 = call i32 @strcmp(ptr noundef %38, ptr noundef %41) #16
  %43 = icmp eq i32 0, %42
  br i1 %43, label %44, label %46

44:                                               ; preds = %37
  %45 = load ptr, ptr %9, align 8, !tbaa !10
  store ptr %45, ptr %4, align 8
  store i32 1, ptr %11, align 4
  br label %85

46:                                               ; preds = %37
  br label %47

47:                                               ; preds = %46, %29
  br label %48

48:                                               ; preds = %47
  %49 = load i32, ptr %8, align 4, !tbaa !8
  %50 = add nsw i32 %49, 1
  store i32 %50, ptr %8, align 4, !tbaa !8
  br label %21, !llvm.loop !69

51:                                               ; preds = %21
  %52 = call ptr @pmix_malloc(i64 noundef 40)
  store ptr %52, ptr %9, align 8, !tbaa !10
  %53 = load ptr, ptr %6, align 8, !tbaa !43
  %54 = call noalias ptr @strdup(ptr noundef %53) #15
  %55 = load ptr, ptr %9, align 8, !tbaa !10
  %56 = getelementptr inbounds nuw %struct.pmix_regattr_input_t, ptr %55, i32 0, i32 1
  store ptr %54, ptr %56, align 8, !tbaa !70
  %57 = load ptr, ptr %6, align 8, !tbaa !43
  %58 = call noalias ptr @strdup(ptr noundef %57) #15
  %59 = load ptr, ptr %9, align 8, !tbaa !10
  %60 = getelementptr inbounds nuw %struct.pmix_regattr_input_t, ptr %59, i32 0, i32 2
  store ptr %58, ptr %60, align 8, !tbaa !68
  %61 = load ptr, ptr %9, align 8, !tbaa !10
  %62 = getelementptr inbounds nuw %struct.pmix_regattr_input_t, ptr %61, i32 0, i32 3
  store i16 0, ptr %62, align 8, !tbaa !71
  %63 = call ptr @pmix_malloc(i64 noundef 16)
  %64 = load ptr, ptr %9, align 8, !tbaa !10
  %65 = getelementptr inbounds nuw %struct.pmix_regattr_input_t, ptr %64, i32 0, i32 4
  store ptr %63, ptr %65, align 8, !tbaa !72
  %66 = call noalias ptr @strdup(ptr noundef @.str.19) #15
  %67 = load ptr, ptr %9, align 8, !tbaa !10
  %68 = getelementptr inbounds nuw %struct.pmix_regattr_input_t, ptr %67, i32 0, i32 4
  %69 = load ptr, ptr %68, align 8, !tbaa !72
  %70 = getelementptr inbounds ptr, ptr %69, i64 0
  store ptr %66, ptr %70, align 8, !tbaa !43
  %71 = load ptr, ptr %9, align 8, !tbaa !10
  %72 = getelementptr inbounds nuw %struct.pmix_regattr_input_t, ptr %71, i32 0, i32 4
  %73 = load ptr, ptr %72, align 8, !tbaa !72
  %74 = getelementptr inbounds ptr, ptr %73, i64 1
  store ptr null, ptr %74, align 8, !tbaa !43
  %75 = load ptr, ptr %9, align 8, !tbaa !10
  %76 = load ptr, ptr %10, align 8, !tbaa !10
  call void @pmix_hash_register_key(i32 noundef -1, ptr noundef %75, ptr noundef %76)
  %77 = load ptr, ptr %9, align 8, !tbaa !10
  store ptr %77, ptr %4, align 8
  store i32 1, ptr %11, align 4
  br label %85

78:                                               ; preds = %3
  %79 = load ptr, ptr %10, align 8, !tbaa !10
  %80 = getelementptr inbounds nuw %struct.pmix_keyindex_t, ptr %79, i32 0, i32 1
  %81 = load ptr, ptr %80, align 8, !tbaa !63
  %82 = load i32, ptr %5, align 4, !tbaa !8
  %83 = call ptr @pmix_pointer_array_get_item(ptr noundef %81, i32 noundef %82)
  store ptr %83, ptr %9, align 8, !tbaa !10
  %84 = load ptr, ptr %9, align 8, !tbaa !10
  store ptr %84, ptr %4, align 8
  store i32 1, ptr %11, align 4
  br label %85

85:                                               ; preds = %78, %51, %44, %19
  call void @llvm.lifetime.end.p0(i64 8, ptr %10) #15
  call void @llvm.lifetime.end.p0(i64 8, ptr %9) #15
  call void @llvm.lifetime.end.p0(i64 4, ptr %8) #15
  %86 = load ptr, ptr %4, align 8
  ret ptr %86
}