; Function Attrs: nounwind uwtable
define ptr @pmix_hash_lookup_key(i32 noundef %0, ptr noundef readonly captures(address_is_null) %1, ptr noundef captures(address_is_null) %2) local_unnamed_addr #0 {
  %.not.i = icmp eq ptr %2, null
  %4 = select i1 %.not.i, ptr getelementptr inbounds nuw (i8, ptr @pmix_globals, i64 2928), ptr %2
  %5 = icmp eq i32 %0, -1
  br i1 %5, label %6, label %38

6:                                                ; preds = %3
  %7 = icmp eq ptr %1, null
  br i1 %7, label %pmix_pointer_array_get_item.exit33, label %.preheader

.preheader:                                       ; preds = %6
  %8 = getelementptr inbounds nuw i8, ptr %4, i64 120
  %9 = load ptr, ptr %8, align 8, !tbaa !56
  %10 = getelementptr inbounds nuw i8, ptr %9, i64 128
  %11 = load i32, ptr %10, align 8, !tbaa !58
  %12 = icmp sgt i32 %11, 0
  br i1 %12, label %pmix_pointer_array_get_item.exit.lr.ph, label %._crit_edge

pmix_pointer_array_get_item.exit.lr.ph:           ; preds = %.preheader
  %13 = getelementptr inbounds nuw i8, ptr %9, i64 152
  %14 = load ptr, ptr %13, align 8, !tbaa !61
  %wide.trip.count = zext nneg i32 %11 to i64
  br label %pmix_pointer_array_get_item.exit

pmix_pointer_array_get_item.exit:                 ; preds = %pmix_pointer_array_get_item.exit.lr.ph, %22
  %indvars.iv = phi i64 [ 0, %pmix_pointer_array_get_item.exit.lr.ph ], [ %indvars.iv.next, %22 ]
  %15 = getelementptr inbounds nuw ptr, ptr %14, i64 %indvars.iv
  %16 = load ptr, ptr %15, align 8, !tbaa !62
  %.not = icmp eq ptr %16, null
  br i1 %.not, label %22, label %17

17:                                               ; preds = %pmix_pointer_array_get_item.exit
  %18 = getelementptr inbounds nuw i8, ptr %16, i64 16
  %19 = load ptr, ptr %18, align 8, !tbaa !63
  %20 = tail call i32 @strcmp(ptr noundef nonnull dereferenceable(1) %1, ptr noundef nonnull dereferenceable(1) %19) #19
  %21 = icmp eq i32 %20, 0
  br i1 %21, label %pmix_pointer_array_get_item.exit33, label %22

22:                                               ; preds = %pmix_pointer_array_get_item.exit, %17
  %indvars.iv.next = add nuw nsw i64 %indvars.iv, 1
  %exitcond.not = icmp eq i64 %indvars.iv.next, %wide.trip.count
  br i1 %exitcond.not, label %._crit_edge, label %pmix_pointer_array_get_item.exit, !llvm.loop !64

._crit_edge:                                      ; preds = %22, %.preheader
  %23 = tail call noalias noundef dereferenceable_or_null(40) ptr @malloc(i64 noundef 40) #18
  %24 = tail call noalias ptr @strdup(ptr noundef nonnull %1) #17
  %25 = getelementptr inbounds nuw i8, ptr %23, i64 8
  store ptr %24, ptr %25, align 8, !tbaa !65
  %26 = tail call noalias ptr @strdup(ptr noundef nonnull %1) #17
  %27 = getelementptr inbounds nuw i8, ptr %23, i64 16
  store ptr %26, ptr %27, align 8, !tbaa !63
  %28 = getelementptr inbounds nuw i8, ptr %23, i64 24
  store i16 0, ptr %28, align 8, !tbaa !66
  %29 = tail call noalias noundef dereferenceable_or_null(16) ptr @malloc(i64 noundef 16) #18
  %30 = getelementptr inbounds nuw i8, ptr %23, i64 32
  store ptr %29, ptr %30, align 8, !tbaa !67
  %31 = tail call noalias dereferenceable_or_null(13) ptr @strdup(ptr noundef nonnull @.str.19) #17
  store ptr %31, ptr %29, align 8, !tbaa !68
  %32 = getelementptr inbounds nuw i8, ptr %29, i64 8
  store ptr null, ptr %32, align 8, !tbaa !68
  %33 = getelementptr inbounds nuw i8, ptr %4, i64 128
  %34 = load i32, ptr %33, align 8, !tbaa !69
  %35 = tail call i32 @pmix_pointer_array_set_item(ptr noundef nonnull %9, i32 noundef %34, ptr noundef %23) #17
  %36 = load i32, ptr %33, align 8, !tbaa !69
  store i32 %36, ptr %23, align 8, !tbaa !30
  %37 = add i32 %36, 1
  store i32 %37, ptr %33, align 8, !tbaa !69
  br label %pmix_pointer_array_get_item.exit33

38:                                               ; preds = %3
  %39 = getelementptr inbounds nuw i8, ptr %4, i64 120
  %40 = load ptr, ptr %39, align 8, !tbaa !56
  %41 = icmp slt i32 %0, 0
  br i1 %41, label %pmix_pointer_array_get_item.exit33, label %42, !prof !29

42:                                               ; preds = %38
  %43 = getelementptr inbounds nuw i8, ptr %40, i64 128
  %44 = load i32, ptr %43, align 8, !tbaa !58
  %.not.i31 = icmp sgt i32 %44, %0
  br i1 %.not.i31, label %45, label %pmix_pointer_array_get_item.exit33, !prof !70

45:                                               ; preds = %42
  %46 = getelementptr inbounds nuw i8, ptr %40, i64 152
  %47 = load ptr, ptr %46, align 8, !tbaa !61
  %48 = zext nneg i32 %0 to i64
  %49 = getelementptr inbounds nuw ptr, ptr %47, i64 %48
  %50 = load ptr, ptr %49, align 8, !tbaa !62
  br label %pmix_pointer_array_get_item.exit33

pmix_pointer_array_get_item.exit33:               ; preds = %17, %45, %42, %38, %6, %._crit_edge
  %.0 = phi ptr [ %23, %._crit_edge ], [ null, %6 ], [ %50, %45 ], [ null, %42 ], [ null, %38 ], [ %16, %17 ]
  ret ptr %.0
}